(lp1
I14
a(lp2
(lp3
F0.081166493097941106
aF0.079166876475016301
aF0.031999826431274414
aa(lp4
cnumpy.core.multiarray
scalar
p5
(cnumpy
dtype
p6
(S'f8'
I0
I1
tRp7
(I3
S'<'
NNNI-1
I-1
I0
tbS'\x84\r\x19\xa9\x91\xb7\xa5?'
tRp8
ag5
(g7
S'\xdato=e\x1d\xa6?'
tRp9
ag5
(g7
S'`37\xeb(\x97\xa6?'
tRp10
aaa.