(lp0
(lp1
S'a'
p2
aS'b'
p3
aS'c'
p4
aS'd'
p5
aS'e'
p6
aa(lp7
S'f'
p8
aS'g'
p9
aS'h'
p10
aS'i'
p11
aS'j'
p12
aa(lp13
S'k'
p14
aS'l'
p15
aS'm'
p16
aS'n'
p17
aS'o'
p18
aa(lp19
S'p'
p20
aS'q'
p21
aS'r'
p22
aS's'
p23
aS't'
p24
aa(lp25
S'u'
p26
aS'v'
p27
aS'w'
p28
aS'x'
p29
aS'y'
p30
aa(lp31
S'z'
p32
aS'_'
p33
aS'.'
p34
aS'Backspace'
p35
aS'Undo'
p36
aa.