(lp0
(lp1
S'q'
p2
aS'w'
p3
aS'e'
p4
aS'r'
p5
aS't'
p6
aS'y'
p7
aS'u'
p8
aS'i'
p9
aS'o'
p10
aS'p'
p11
aa(lp12
S'a'
p13
aS's'
p14
aS'd'
p15
aS'f'
p16
aS'g'
p17
aS'h'
p18
aS'j'
p19
aS'k'
p20
aS'l'
p21
aa(lp22
S'z'
p23
aS'x'
p24
aS'c'
p25
aS'v'
p26
aS'b'
p27
aS'n'
p28
aS'm'
p29
aS'_'
p30
aS"'"
p31
aS','
p32
aS'.'
p33
aS'?'
p34
aa(lp35
S'Backspace'
p36
aS'Clear'
p37
aS'Undo'
p38
aa.